; Function Attrs: mustprogress nounwind uwtable
define hidden noundef i32 @_ZN6hermes2vm17JSWeakMapImplBase8getMapIDERNS0_7HadesGCE(ptr noundef nonnull align 8 dereferenceable(61) %this, ptr noundef nonnull align 8 dereferenceable(8152) %gc) local_unnamed_addr #0 align 2 {
entry:
  %idTracker_.i = getelementptr inbounds nuw i8, ptr %gc, i64 488
  %call2 = tail call noundef i32 @_ZN6hermes2vm6GCBase11getObjectIDEPKNS0_6GCCellE(ptr noundef nonnull align 8 dereferenceable(741) %gc, ptr noundef nonnull %this) #15
  %call3 = tail call noundef nonnull align 8 dereferenceable(20) ptr @_ZN6hermes2vm6GCBase9IDTracker17getExtraNativeIDsEj(ptr noundef nonnull align 8 dereferenceable(192) %idTracker_.i, i32 noundef %call2) #15
  %Size.i = getelementptr inbounds nuw i8, ptr %call3, i64 8
  %0 = load i32, ptr %Size.i, align 8
  %tobool.not.i = icmp eq i32 %0, 0
  br i1 %tobool.not.i, label %if.then, label %if.end

if.then:                                          ; preds = %entry
  %call5 = tail call noundef i32 @_ZN6hermes2vm6GCBase9IDTracker12nextNativeIDEv(ptr noundef nonnull align 8 dereferenceable(192) %idTracker_.i) #15
  %1 = load i32, ptr %Size.i, align 8
  %Capacity.i.i = getelementptr inbounds nuw i8, ptr %call3, i64 12
  %2 = load i32, ptr %Capacity.i.i, align 4
  %cmp.not.i = icmp ult i32 %1, %2
  br i1 %cmp.not.i, label %_ZN4llvh23SmallVectorTemplateBaseIjLb1EE9push_backERKj.exit, label %if.then.i

if.then.i:                                        ; preds = %if.then
  %add.ptr.i.i.i.i = getelementptr inbounds nuw i8, ptr %call3, i64 16
  tail call void @_ZN4llvh15SmallVectorBase8grow_podEPvmm(ptr noundef nonnull align 8 dereferenceable(16) %call3, ptr noundef nonnull %add.ptr.i.i.i.i, i64 noundef 0, i64 noundef 4) #15
  %.pre.i = load i32, ptr %Size.i, align 8
  br label %_ZN4llvh23SmallVectorTemplateBaseIjLb1EE9push_backERKj.exit

_ZN4llvh23SmallVectorTemplateBaseIjLb1EE9push_backERKj.exit: ; preds = %if.then, %if.then.i
  %3 = phi i32 [ %.pre.i, %if.then.i ], [ %1, %if.then ]
  %4 = load ptr, ptr %call3, align 8
  %conv.i3.i = zext i32 %3 to i64
  %add.ptr.i.i = getelementptr inbounds nuw i32, ptr %4, i64 %conv.i3.i
  store i32 %call5, ptr %add.ptr.i.i, align 1
  %5 = load i32, ptr %Size.i, align 8
  %add.i = add i32 %5, 1
  store i32 %add.i, ptr %Size.i, align 8
  br label %if.end

if.end:                                           ; preds = %_ZN4llvh23SmallVectorTemplateBaseIjLb1EE9push_backERKj.exit, %entry
  %6 = load ptr, ptr %call3, align 8
  %7 = load i32, ptr %6, align 4
  ret i32 %7
}